target datalayout = "e-m:e-p270:32:32-p271:32:32-p272:64:64-i64:64-i128:128-f80:128-n8:16:32:64-S128"
target triple = "x86_64-pc-linux-gnu"

%struct.Type_ = type { i32, ptr, ptr, ptr, %union.anon, ptr, ptr, %union.anon.1 }
%union.anon = type { ptr }
%union.anon.1 = type { %struct.TypeFunction }
%struct.TypeFunction = type { ptr, ptr, ptr }
%union.SourceSpan = type { i64 }
%struct.Vmem = type { ptr, i64, i64 }
%struct.Decl_ = type { ptr, ptr, %union.SourceSpan, i64, %union.anon.3, i32, %union.anon.4, i64, ptr, ptr, ptr, %union.anon.5 }
%union.anon.3 = type { ptr }
%union.anon.4 = type { i16 }
%union.anon.5 = type { %struct.FuncDecl }
%struct.FuncDecl = type { i32, [4 x i8], %struct.Signature_, i32, i32, %union.anon.12 }
%struct.Signature_ = type <{ %struct.CalleeAttributes, i16, i8, i32, i32, [4 x i8], ptr }>
%struct.CalleeAttributes = type { i8 }
%union.anon.12 = type { %struct.anon.13 }
%struct.anon.13 = type { i16, %union.anon.14 }
%union.anon.14 = type { ptr }
%struct.VHeader_ = type { i32, i32, [0 x i8] }
%struct.TypeInfo_ = type { i16, ptr, %union.SourceSpan, %union.anon.54 }
%union.anon.54 = type { %struct.anon.55 }
%struct.anon.55 = type { ptr, ptr }
%struct.__va_list_tag = type { i32, i32, ptr, ptr }

@type_info_arena = external global %struct.Vmem, align 8

; Function Attrs: nounwind uwtable
define internal ptr @type_infoptr(i32 noundef %0) #0 {
  %2 = alloca i32, align 4
  store i32 %0, ptr %2, align 4
  %3 = load ptr, ptr @type_info_arena, align 8
  %4 = load i32, ptr %2, align 4
  %5 = zext i32 %4 to i64
  %6 = getelementptr inbounds %struct.TypeInfo_, ptr %3, i64 %5
  ret ptr %6
}

; Function Attrs: nounwind uwtable
define dso_local zeroext i1 @type_func_match(ptr noundef %0, ptr noundef %1, i32 noundef %2, ...) #0 {
  %4 = alloca i32, align 4
  %5 = alloca i32, align 4
  %6 = alloca ptr, align 8
  %7 = alloca ptr, align 8
  %8 = alloca i32, align 4
  %9 = alloca ptr, align 8
  %10 = alloca ptr, align 8
  %11 = alloca i1, align 1
  %12 = alloca ptr, align 8
  %13 = alloca ptr, align 8
  %14 = alloca i32, align 4
  %15 = alloca ptr, align 8
  %16 = alloca [1 x %struct.__va_list_tag], align 16
  %17 = alloca ptr, align 8
  %18 = alloca i32, align 4
  %19 = alloca i32, align 4
  %20 = alloca ptr, align 8
  %21 = alloca ptr, align 8
  store ptr %0, ptr %12, align 8
  store ptr %1, ptr %13, align 8
  store i32 %2, ptr %14, align 4
  %22 = load ptr, ptr %12, align 8
  %23 = getelementptr inbounds %struct.Type_, ptr %22, i32 0, i32 7
  %24 = load ptr, ptr %23, align 8
  %25 = getelementptr inbounds %struct.Type_, ptr %24, i32 0, i32 7
  %26 = getelementptr inbounds %struct.TypeFunction, ptr %25, i32 0, i32 1
  %27 = load ptr, ptr %26, align 8
  store ptr %27, ptr %15, align 8
  %28 = load ptr, ptr %13, align 8
  %29 = getelementptr inbounds %struct.Type_, ptr %28, i32 0, i32 1
  %30 = load ptr, ptr %29, align 8
  %31 = load ptr, ptr %15, align 8
  %32 = getelementptr inbounds %struct.Signature_, ptr %31, i32 0, i32 4
  %33 = load i32, ptr %32, align 8
  store i32 %33, ptr %4, align 4
  %34 = load i32, ptr %4, align 4
  %35 = icmp ne i32 %34, 0
  br i1 %35, label %36, label %41

36:                                               ; preds = %3
  %37 = load i32, ptr %4, align 4
  %38 = call ptr @type_infoptr(i32 noundef %37)
  %39 = getelementptr inbounds %struct.TypeInfo_, ptr %38, i32 0, i32 1
  %40 = load ptr, ptr %39, align 8
  br label %42

41:                                               ; preds = %3
  br label %42

42:                                               ; preds = %41, %36
  %43 = phi ptr [ %40, %36 ], [ null, %41 ]
  %44 = getelementptr inbounds %struct.Type_, ptr %43, i32 0, i32 1
  %45 = load ptr, ptr %44, align 8
  %46 = icmp ne ptr %30, %45
  br i1 %46, label %47, label %48

47:                                               ; preds = %42
  store i1 false, ptr %11, align 1
  br label %126

48:                                               ; preds = %42
  %49 = load ptr, ptr %15, align 8
  %50 = getelementptr inbounds %struct.Signature_, ptr %49, i32 0, i32 6
  %51 = load ptr, ptr %50, align 8
  store ptr %51, ptr %6, align 8
  %52 = load ptr, ptr %6, align 8
  %53 = icmp ne ptr %52, null
  br i1 %53, label %55, label %54

54:                                               ; preds = %48
  store i32 0, ptr %5, align 4
  br label %60

55:                                               ; preds = %48
  %56 = load ptr, ptr %6, align 8
  store ptr %56, ptr %7, align 8
  %57 = load ptr, ptr %7, align 8
  %58 = getelementptr inbounds %struct.VHeader_, ptr %57, i64 -1
  %59 = load i32, ptr %58, align 4
  store i32 %59, ptr %5, align 4
  br label %60

60:                                               ; preds = %55, %54
  %61 = load i32, ptr %5, align 4
  %62 = load i32, ptr %14, align 4
  %63 = icmp ne i32 %61, %62
  br i1 %63, label %64, label %65

64:                                               ; preds = %60
  store i1 false, ptr %11, align 1
  br label %126

65:                                               ; preds = %60
  %66 = getelementptr inbounds [1 x %struct.__va_list_tag], ptr %16, i64 0, i64 0
  call void @llvm.va_start.p0(ptr %66)
  %67 = load ptr, ptr %15, align 8
  %68 = getelementptr inbounds %struct.Signature_, ptr %67, i32 0, i32 6
  %69 = load ptr, ptr %68, align 8
  store ptr %69, ptr %17, align 8
  %70 = load ptr, ptr %17, align 8
  store ptr %70, ptr %9, align 8
  %71 = load ptr, ptr %9, align 8
  %72 = icmp ne ptr %71, null
  br i1 %72, label %74, label %73

73:                                               ; preds = %65
  store i32 0, ptr %8, align 4
  br label %79

74:                                               ; preds = %65
  %75 = load ptr, ptr %9, align 8
  store ptr %75, ptr %10, align 8
  %76 = load ptr, ptr %10, align 8
  %77 = getelementptr inbounds %struct.VHeader_, ptr %76, i64 -1
  %78 = load i32, ptr %77, align 4
  store i32 %78, ptr %8, align 4
  br label %79

79:                                               ; preds = %74, %73
  %80 = load i32, ptr %8, align 4
  store i32 %80, ptr %18, align 4
  store i32 0, ptr %19, align 4
  br label %81

81:                                               ; preds = %119, %79
  %82 = load i32, ptr %19, align 4
  %83 = load i32, ptr %18, align 4
  %84 = icmp ult i32 %82, %83
  br i1 %84, label %85, label %122

85:                                               ; preds = %81
  %86 = load ptr, ptr %17, align 8
  %87 = load i32, ptr %19, align 4
  %88 = zext i32 %87 to i64
  %89 = getelementptr inbounds ptr, ptr %86, i64 %88
  %90 = load ptr, ptr %89, align 8
  store ptr %90, ptr %20, align 8
  %91 = getelementptr inbounds [1 x %struct.__va_list_tag], ptr %16, i64 0, i64 0
  %92 = getelementptr inbounds %struct.__va_list_tag, ptr %91, i32 0, i32 0
  %93 = load i32, ptr %92, align 16
  %94 = icmp ule i32 %93, 40
  br i1 %94, label %95, label %100

95:                                               ; preds = %85
  %96 = getelementptr inbounds %struct.__va_list_tag, ptr %91, i32 0, i32 3
  %97 = load ptr, ptr %96, align 16
  %98 = getelementptr i8, ptr %97, i32 %93
  %99 = add i32 %93, 8
  store i32 %99, ptr %92, align 16
  br label %104

100:                                              ; preds = %85
  %101 = getelementptr inbounds %struct.__va_list_tag, ptr %91, i32 0, i32 2
  %102 = load ptr, ptr %101, align 8
  %103 = getelementptr i8, ptr %102, i32 8
  store ptr %103, ptr %101, align 8
  br label %104

104:                                              ; preds = %100, %95
  %105 = phi ptr [ %98, %95 ], [ %102, %100 ]
  %106 = load ptr, ptr %105, align 8
  store ptr %106, ptr %21, align 8
  %107 = load ptr, ptr %20, align 8
  %108 = getelementptr inbounds %struct.Decl_, ptr %107, i32 0, i32 10
  %109 = load ptr, ptr %108, align 8
  %110 = getelementptr inbounds %struct.Type_, ptr %109, i32 0, i32 1
  %111 = load ptr, ptr %110, align 8
  %112 = load ptr, ptr %21, align 8
  %113 = getelementptr inbounds %struct.Type_, ptr %112, i32 0, i32 1
  %114 = load ptr, ptr %113, align 8
  %115 = icmp ne ptr %111, %114
  br i1 %115, label %116, label %118

116:                                              ; preds = %104
  %117 = getelementptr inbounds [1 x %struct.__va_list_tag], ptr %16, i64 0, i64 0
  call void @llvm.va_end.p0(ptr %117)
  store i1 false, ptr %11, align 1
  br label %126

118:                                              ; preds = %104
  br label %119

119:                                              ; preds = %118
  %120 = load i32, ptr %19, align 4
  %121 = add i32 %120, 1
  store i32 %121, ptr %19, align 4
  br label %81, !llvm.loop !11

122:                                              ; preds = %81
  br label %123

123:                                              ; preds = %122
  br label %124

124:                                              ; preds = %123
  %125 = getelementptr inbounds [1 x %struct.__va_list_tag], ptr %16, i64 0, i64 0
  call void @llvm.va_end.p0(ptr %125)
  store i1 true, ptr %11, align 1
  br label %126

126:                                              ; preds = %124, %116, %64, %47
  %127 = load i1, ptr %11, align 1
  ret i1 %127
}