; Function Attrs: nofree norecurse nosync nounwind uwtable
define dso_local noundef zeroext i1 @type_func_match(ptr nocapture noundef readonly %0, ptr nocapture noundef readonly %1, i32 noundef %2, ...) local_unnamed_addr #7 {
  %4 = alloca [1 x %struct.__va_list_tag], align 16
  %5 = getelementptr inbounds i8, ptr %0, i64 56
  %6 = load ptr, ptr %5, align 8
  %7 = getelementptr inbounds i8, ptr %6, i64 64
  %8 = load ptr, ptr %7, align 8
  %9 = getelementptr inbounds i8, ptr %1, i64 8
  %10 = load ptr, ptr %9, align 8
  %11 = getelementptr inbounds i8, ptr %8, i64 8
  %12 = load i32, ptr %11, align 8
  %13 = icmp ne i32 %12, 0
  tail call void @llvm.assume(i1 %13)
  %14 = load ptr, ptr @type_info_arena, align 8
  %15 = zext i32 %12 to i64
  %16 = getelementptr inbounds %struct.TypeInfo_, ptr %14, i64 %15, i32 1
  %17 = load ptr, ptr %16, align 8
  %18 = getelementptr inbounds i8, ptr %17, i64 8
  %19 = load ptr, ptr %18, align 8
  %.not = icmp eq ptr %10, %19
  br i1 %.not, label %20, label %58

20:                                               ; preds = %3
  %21 = getelementptr inbounds i8, ptr %8, i64 16
  %22 = load ptr, ptr %21, align 8
  %.not30 = icmp eq ptr %22, null
  br i1 %.not30, label %26, label %23

23:                                               ; preds = %20
  %24 = getelementptr inbounds i8, ptr %22, i64 -8
  %25 = load i32, ptr %24, align 4
  br label %26

26:                                               ; preds = %20, %23
  %.0 = phi i32 [ %25, %23 ], [ 0, %20 ]
  %.not31 = icmp eq i32 %.0, %2
  br i1 %.not31, label %27, label %58

27:                                               ; preds = %26
  call void @llvm.va_start.p0(ptr nonnull %4)
  %28 = load ptr, ptr %21, align 8
  %.not32 = icmp eq ptr %28, null
  br i1 %.not32, label %.sink.split, label %29

29:                                               ; preds = %27
  %30 = getelementptr inbounds i8, ptr %28, i64 -8
  %31 = load i32, ptr %30, align 4
  %.not36 = icmp eq i32 %31, 0
  br i1 %.not36, label %.sink.split, label %.lr.ph

.lr.ph:                                           ; preds = %29
  %.promoted = load i32, ptr %4, align 16
  %32 = getelementptr inbounds i8, ptr %4, i64 8
  %33 = getelementptr inbounds i8, ptr %4, i64 16
  %34 = load ptr, ptr %33, align 16
  %.promoted35 = load ptr, ptr %32, align 8
  %wide.trip.count = zext i32 %31 to i64
  br label %35

35:                                               ; preds = %47, %.lr.ph
  %indvars.iv = phi i64 [ 0, %.lr.ph ], [ %indvars.iv.next, %47 ]
  %36 = phi ptr [ %.promoted35, %.lr.ph ], [ %48, %47 ]
  %37 = phi i32 [ %.promoted, %.lr.ph ], [ %49, %47 ]
  %38 = getelementptr inbounds ptr, ptr %28, i64 %indvars.iv
  %39 = load ptr, ptr %38, align 8
  %40 = icmp ult i32 %37, 41
  br i1 %40, label %41, label %45

41:                                               ; preds = %35
  %42 = zext nneg i32 %37 to i64
  %43 = getelementptr i8, ptr %34, i64 %42
  %44 = add nuw nsw i32 %37, 8
  store i32 %44, ptr %4, align 16
  br label %47

45:                                               ; preds = %35
  %46 = getelementptr i8, ptr %36, i64 8
  store ptr %46, ptr %32, align 8
  br label %47

47:                                               ; preds = %45, %41
  %48 = phi ptr [ %36, %41 ], [ %46, %45 ]
  %49 = phi i32 [ %44, %41 ], [ %37, %45 ]
  %50 = phi ptr [ %43, %41 ], [ %36, %45 ]
  %51 = load ptr, ptr %50, align 8
  %52 = getelementptr inbounds i8, ptr %39, i64 72
  %53 = load ptr, ptr %52, align 8
  %54 = getelementptr inbounds i8, ptr %53, i64 8
  %55 = load ptr, ptr %54, align 8
  %56 = getelementptr inbounds i8, ptr %51, i64 8
  %57 = load ptr, ptr %56, align 8
  %.not33 = icmp eq ptr %55, %57
  %indvars.iv.next = add nuw nsw i64 %indvars.iv, 1
  %exitcond.not = icmp ne i64 %indvars.iv.next, %wide.trip.count
  %or.cond.not = select i1 %.not33, i1 %exitcond.not, i1 false
  br i1 %or.cond.not, label %35, label %.sink.split, !llvm.loop !12

.sink.split:                                      ; preds = %47, %29, %27
  %.026.ph = phi i1 [ true, %27 ], [ true, %29 ], [ %.not33, %47 ]
  call void @llvm.va_end.p0(ptr nonnull %4)
  br label %58

58:                                               ; preds = %.sink.split, %26, %3
  %.026 = phi i1 [ false, %3 ], [ false, %26 ], [ %.026.ph, %.sink.split ]
  ret i1 %.026
}